target datalayout = "e-m:e-p270:32:32-p271:32:32-p272:64:64-i64:64-i128:128-f80:128-n8:16:32:64-S128"
target triple = "x86_64-pc-linux-gnu"

%struct.Abc_Frame_t_ = type { ptr, ptr, ptr, ptr, ptr, ptr, ptr, ptr, ptr, ptr, i32, i32, i32, i32, i32, ptr, float, float, i32, i32, ptr, ptr, ptr, double, double, ptr, ptr, ptr, ptr, ptr, ptr, ptr, ptr, ptr, ptr, ptr, ptr, float, ptr, i32, ptr, ptr, ptr, ptr, ptr, i32, i32, i32, i32, i32, i32, ptr, ptr, ptr, ptr, ptr, ptr, i32, i32, ptr, ptr, ptr, ptr, ptr, ptr, ptr, ptr, ptr, ptr, ptr, ptr, ptr, ptr, ptr, ptr, ptr, ptr, ptr, ptr, ptr, ptr, ptr, ptr, ptr, ptr, ptr, ptr, ptr, ptr }
%struct.Vec_Int_t_ = type { i32, i32, ptr }
%struct.Gia_Man_t_ = type { ptr, ptr, i32, i32, i32, i32, ptr, ptr, i32, i32, i32, ptr, ptr, %struct.Vec_Int_t_, %struct.Vec_Int_t_, i32, i32, i32, %struct.Vec_Int_t_, ptr, ptr, ptr, i32, i32, i32, i32, ptr, ptr, ptr, ptr, ptr, i32, i32, ptr, i32, ptr, ptr, ptr, ptr, ptr, ptr, ptr, ptr, ptr, ptr, ptr, ptr, ptr, ptr, ptr, ptr, ptr, ptr, %struct.Vec_Int_t_, %struct.Vec_Int_t_, ptr, ptr, ptr, ptr, ptr, ptr, ptr, ptr, ptr, ptr, ptr, ptr, ptr, ptr, ptr, ptr, ptr, ptr, ptr, ptr, ptr, i32, float, float, ptr, ptr, i32, ptr, ptr, ptr, ptr, ptr, ptr, ptr, ptr, ptr, ptr, ptr, ptr, ptr, ptr, ptr, i64, i64, ptr, ptr, i32, i32, i32, i32, i32, i32, i32, i32, i32, i32, i32, i32, ptr, ptr, ptr, ptr, ptr, ptr, ptr, ptr, i32, i32, i32, ptr, i32, i32, ptr, ptr, ptr, ptr, ptr, ptr, i32, i32, ptr, %struct.Vec_Int_t_, %struct.Vec_Int_t_, %struct.Vec_Int_t_, ptr, ptr, ptr, i32, i32, i32, i32, ptr, ptr, ptr, ptr, ptr }

@.str.41 = private unnamed_addr constant [4 x i8] c"yes\00", align 1
@.str.42 = private unnamed_addr constant [3 x i8] c"no\00", align 1
@.str.45 = private unnamed_addr constant [62 x i8] c"\09-v     : toggle printing verbose information [default = %s]\0A\00", align 1
@.str.46 = private unnamed_addr constant [35 x i8] c"\09-h     : print the command usage\0A\00", align 1
@.str.192 = private unnamed_addr constant [50 x i8] c"Abc_CommandInvMin(): There is no current design.\0A\00", align 1
@.str.194 = private unnamed_addr constant [90 x i8] c"Abc_CommandInvMin(): The number of flops in the invariant and in GIA should be the same.\0A\00", align 1
@.str.200 = private unnamed_addr constant [66 x i8] c"\09         (AIG representing the design should be in the &-space)\0A\00", align 1
@.str.214 = private unnamed_addr constant [4 x i8] c"lvh\00", align 1
@.str.215 = private unnamed_addr constant [50 x i8] c"Abc_CommandInvMin(): Invariant is not available.\0A\00", align 1
@.str.216 = private unnamed_addr constant [23 x i8] c"usage: inv_min [-lvh]\0A\00", align 1
@.str.217 = private unnamed_addr constant [58 x i8] c"\09         performs minimization of the current invariant\0A\00", align 1
@.str.218 = private unnamed_addr constant [73 x i8] c"\09-l     : toggle minimizing literals rather than clauses [default = %s]\0A\00", align 1

; Function Attrs: inlinehint nounwind uwtable
define internal i32 @Vec_IntEntryLast(ptr noundef %0) #2 {
  %2 = alloca ptr, align 8
  store ptr %0, ptr %2, align 8, !tbaa !111
  %3 = load ptr, ptr %2, align 8, !tbaa !111
  %4 = getelementptr inbounds nuw %struct.Vec_Int_t_, ptr %3, i32 0, i32 2
  %5 = load ptr, ptr %4, align 8, !tbaa !138
  %6 = load ptr, ptr %2, align 8, !tbaa !111
  %7 = getelementptr inbounds nuw %struct.Vec_Int_t_, ptr %6, i32 0, i32 1
  %8 = load i32, ptr %7, align 4, !tbaa !135
  %9 = sub nsw i32 %8, 1
  %10 = sext i32 %9 to i64
  %11 = getelementptr inbounds i32, ptr %5, i64 %10
  %12 = load i32, ptr %11, align 4, !tbaa !8
  ret i32 %12
}

; Function Attrs: inlinehint nounwind uwtable
define internal i32 @Gia_ManRegNum(ptr noundef %0) #2 {
  %2 = alloca ptr, align 8
  store ptr %0, ptr %2, align 8, !tbaa !73
  %3 = load ptr, ptr %2, align 8, !tbaa !73
  %4 = getelementptr inbounds nuw %struct.Gia_Man_t_, ptr %3, i32 0, i32 2
  %5 = load i32, ptr %4, align 8, !tbaa !144
  ret i32 %5
}

; Function Attrs: inlinehint nounwind uwtable
define internal ptr @Wlc_AbcGetInv(ptr noundef %0) #2 {
  %2 = alloca ptr, align 8
  store ptr %0, ptr %2, align 8, !tbaa !3
  %3 = load ptr, ptr %2, align 8, !tbaa !3
  %4 = getelementptr inbounds nuw %struct.Abc_Frame_t_, ptr %3, i32 0, i32 72
  %5 = load ptr, ptr %4, align 8, !tbaa !146
  ret ptr %5
}

; Function Attrs: nounwind uwtable
define internal i32 @Abc_CommandInvMin(ptr noundef %0, i32 noundef %1, ptr noundef %2) #0 {
  %4 = alloca i32, align 4
  %5 = alloca ptr, align 8
  %6 = alloca i32, align 4
  %7 = alloca ptr, align 8
  %8 = alloca ptr, align 8
  %9 = alloca ptr, align 8
  %10 = alloca i32, align 4
  %11 = alloca i32, align 4
  %12 = alloca i32, align 4
  %13 = alloca i32, align 4
  store ptr %0, ptr %5, align 8, !tbaa !3
  store i32 %1, ptr %6, align 4, !tbaa !8
  store ptr %2, ptr %7, align 8, !tbaa !10
  call void @llvm.lifetime.start.p0(i64 8, ptr %8) #12
  call void @llvm.lifetime.start.p0(i64 8, ptr %9) #12
  call void @llvm.lifetime.start.p0(i64 4, ptr %10) #12
  call void @llvm.lifetime.start.p0(i64 4, ptr %11) #12
  store i32 0, ptr %11, align 4, !tbaa !8
  call void @llvm.lifetime.start.p0(i64 4, ptr %12) #12
  store i32 0, ptr %12, align 4, !tbaa !8
  call void (...) @Extra_UtilGetoptReset()
  br label %14

14:                                               ; preds = %29, %3
  %15 = load i32, ptr %6, align 4, !tbaa !8
  %16 = load ptr, ptr %7, align 8, !tbaa !10
  %17 = call i32 @Extra_UtilGetopt(i32 noundef %15, ptr noundef %16, ptr noundef @.str.214)
  store i32 %17, ptr %10, align 4, !tbaa !8
  %18 = icmp ne i32 %17, -1
  br i1 %18, label %19, label %30

19:                                               ; preds = %14
  %20 = load i32, ptr %10, align 4, !tbaa !8
  switch i32 %20, label %28 [
    i32 108, label %21
    i32 118, label %24
    i32 104, label %27
  ]

21:                                               ; preds = %19
  %22 = load i32, ptr %11, align 4, !tbaa !8
  %23 = xor i32 %22, 1
  store i32 %23, ptr %11, align 4, !tbaa !8
  br label %29

24:                                               ; preds = %19
  %25 = load i32, ptr %12, align 4, !tbaa !8
  %26 = xor i32 %25, 1
  store i32 %26, ptr %12, align 4, !tbaa !8
  br label %29

27:                                               ; preds = %19
  br label %75

28:                                               ; preds = %19
  br label %75

29:                                               ; preds = %24, %21
  br label %14, !llvm.loop !131

30:                                               ; preds = %14
  %31 = load ptr, ptr %5, align 8, !tbaa !3
  %32 = getelementptr inbounds nuw %struct.Abc_Frame_t_, ptr %31, i32 0, i32 40
  %33 = load ptr, ptr %32, align 8, !tbaa !20
  %34 = icmp eq ptr %33, null
  br i1 %34, label %35, label %36

35:                                               ; preds = %30
  call void (i32, ptr, ...) @Abc_Print(i32 noundef 1, ptr noundef @.str.192)
  store i32 0, ptr %4, align 4
  store i32 1, ptr %13, align 4
  br label %82

36:                                               ; preds = %30
  %37 = load ptr, ptr %5, align 8, !tbaa !3
  %38 = call ptr @Wlc_AbcGetInv(ptr noundef %37)
  %39 = icmp eq ptr %38, null
  br i1 %39, label %40, label %41

40:                                               ; preds = %36
  call void (i32, ptr, ...) @Abc_Print(i32 noundef 1, ptr noundef @.str.215)
  store i32 0, ptr %4, align 4
  store i32 1, ptr %13, align 4
  br label %82

41:                                               ; preds = %36
  %42 = load ptr, ptr %5, align 8, !tbaa !3
  %43 = call ptr @Wlc_AbcGetInv(ptr noundef %42)
  store ptr %43, ptr %8, align 8, !tbaa !111
  %44 = load ptr, ptr %5, align 8, !tbaa !3
  %45 = getelementptr inbounds nuw %struct.Abc_Frame_t_, ptr %44, i32 0, i32 40
  %46 = load ptr, ptr %45, align 8, !tbaa !20
  %47 = call i32 @Gia_ManRegNum(ptr noundef %46)
  %48 = load ptr, ptr %8, align 8, !tbaa !111
  %49 = call i32 @Vec_IntEntryLast(ptr noundef %48)
  %50 = icmp ne i32 %47, %49
  br i1 %50, label %51, label %52

51:                                               ; preds = %41
  call void (i32, ptr, ...) @Abc_Print(i32 noundef 1, ptr noundef @.str.194)
  store i32 0, ptr %4, align 4
  store i32 1, ptr %13, align 4
  br label %82

52:                                               ; preds = %41
  %53 = load i32, ptr %11, align 4, !tbaa !8
  %54 = icmp ne i32 %53, 0
  br i1 %54, label %55, label %62

55:                                               ; preds = %52
  %56 = load ptr, ptr %5, align 8, !tbaa !3
  %57 = getelementptr inbounds nuw %struct.Abc_Frame_t_, ptr %56, i32 0, i32 40
  %58 = load ptr, ptr %57, align 8, !tbaa !20
  %59 = load ptr, ptr %8, align 8, !tbaa !111
  %60 = load i32, ptr %12, align 4, !tbaa !8
  %61 = call ptr @Pdr_InvMinimizeLits(ptr noundef %58, ptr noundef %59, i32 noundef %60)
  store ptr %61, ptr %9, align 8, !tbaa !111
  br label %69

62:                                               ; preds = %52
  %63 = load ptr, ptr %5, align 8, !tbaa !3
  %64 = getelementptr inbounds nuw %struct.Abc_Frame_t_, ptr %63, i32 0, i32 40
  %65 = load ptr, ptr %64, align 8, !tbaa !20
  %66 = load ptr, ptr %8, align 8, !tbaa !111
  %67 = load i32, ptr %12, align 4, !tbaa !8
  %68 = call ptr @Pdr_InvMinimize(ptr noundef %65, ptr noundef %66, i32 noundef %67)
  store ptr %68, ptr %9, align 8, !tbaa !111
  br label %69

69:                                               ; preds = %62, %55
  %70 = load ptr, ptr %9, align 8, !tbaa !111
  %71 = icmp ne ptr %70, null
  br i1 %71, label %72, label %74

72:                                               ; preds = %69
  %73 = load ptr, ptr %9, align 8, !tbaa !111
  call void @Abc_FrameSetInv(ptr noundef %73)
  br label %74

74:                                               ; preds = %72, %69
  store i32 0, ptr %4, align 4
  store i32 1, ptr %13, align 4
  br label %82

75:                                               ; preds = %28, %27
  call void (i32, ptr, ...) @Abc_Print(i32 noundef -2, ptr noundef @.str.216)
  call void (i32, ptr, ...) @Abc_Print(i32 noundef -2, ptr noundef @.str.217)
  call void (i32, ptr, ...) @Abc_Print(i32 noundef -2, ptr noundef @.str.200)
  %76 = load i32, ptr %11, align 4, !tbaa !8
  %77 = icmp ne i32 %76, 0
  %78 = select i1 %77, ptr @.str.41, ptr @.str.42
  call void (i32, ptr, ...) @Abc_Print(i32 noundef -2, ptr noundef @.str.218, ptr noundef %78)
  %79 = load i32, ptr %12, align 4, !tbaa !8
  %80 = icmp ne i32 %79, 0
  %81 = select i1 %80, ptr @.str.41, ptr @.str.42
  call void (i32, ptr, ...) @Abc_Print(i32 noundef -2, ptr noundef @.str.45, ptr noundef %81)
  call void (i32, ptr, ...) @Abc_Print(i32 noundef -2, ptr noundef @.str.46)
  store i32 1, ptr %4, align 4
  store i32 1, ptr %13, align 4
  br label %82

82:                                               ; preds = %75, %74, %51, %40, %35
  call void @llvm.lifetime.end.p0(i64 4, ptr %12) #12
  call void @llvm.lifetime.end.p0(i64 4, ptr %11) #12
  call void @llvm.lifetime.end.p0(i64 4, ptr %10) #12
  call void @llvm.lifetime.end.p0(i64 8, ptr %9) #12
  call void @llvm.lifetime.end.p0(i64 8, ptr %8) #12
  %83 = load i32, ptr %4, align 4
  ret i32 %83
}