; Function Attrs: nounwind uwtable
define internal range(i32 0, 2) i32 @Abc_CommandInvMin(ptr noundef readonly captures(none) %0, i32 noundef %1, ptr noundef %2) #0 {
  tail call void (...) @Extra_UtilGetoptReset() #17
  br label %.outer

.outer:                                           ; preds = %6, %3
  %.021.ph = phi i32 [ %7, %6 ], [ 0, %3 ]
  %.0.ph = phi i32 [ %.0, %6 ], [ 0, %3 ]
  br label %4

4:                                                ; preds = %.outer, %8
  %.0 = phi i32 [ %9, %8 ], [ %.0.ph, %.outer ]
  %5 = tail call i32 @Extra_UtilGetopt(i32 noundef %1, ptr noundef %2, ptr noundef nonnull @.str.214) #17
  switch i32 %5, label %35 [
    i32 -1, label %10
    i32 108, label %6
    i32 118, label %8
  ]

6:                                                ; preds = %4
  %7 = xor i32 %.021.ph, 1
  br label %.outer, !llvm.loop !120

8:                                                ; preds = %4
  %9 = xor i32 %.0, 1
  br label %4, !llvm.loop !120

10:                                               ; preds = %4
  %11 = getelementptr inbounds nuw i8, ptr %0, i64 288
  %12 = load ptr, ptr %11, align 8, !tbaa !12
  %13 = icmp eq ptr %12, null
  br i1 %13, label %14, label %15

14:                                               ; preds = %10
  tail call void (i32, ptr, ...) @Abc_Print(i32 noundef 1, ptr noundef nonnull @.str.192)
  br label %38

15:                                               ; preds = %10
  %16 = getelementptr i8, ptr %0, i64 512
  %.val = load ptr, ptr %16, align 8, !tbaa !109
  %17 = icmp eq ptr %.val, null
  br i1 %17, label %18, label %19

18:                                               ; preds = %15
  tail call void (i32, ptr, ...) @Abc_Print(i32 noundef 1, ptr noundef nonnull @.str.215)
  br label %38

19:                                               ; preds = %15
  %20 = getelementptr i8, ptr %12, i64 16
  %.val32 = load i32, ptr %20, align 8, !tbaa !97
  %21 = getelementptr i8, ptr %.val, i64 4
  %.val33 = load i32, ptr %21, align 4, !tbaa !37
  %22 = getelementptr i8, ptr %.val, i64 8
  %.val34 = load ptr, ptr %22, align 8, !tbaa !103
  %23 = sext i32 %.val33 to i64
  %24 = getelementptr i32, ptr %.val34, i64 %23
  %25 = getelementptr i8, ptr %24, i64 -4
  %26 = load i32, ptr %25, align 4, !tbaa !5
  %.not26 = icmp eq i32 %.val32, %26
  br i1 %.not26, label %28, label %27

27:                                               ; preds = %19
  tail call void (i32, ptr, ...) @Abc_Print(i32 noundef 1, ptr noundef nonnull @.str.194)
  br label %38

28:                                               ; preds = %19
  %.not27 = icmp eq i32 %.021.ph, 0
  br i1 %.not27, label %31, label %29

29:                                               ; preds = %28
  %30 = tail call ptr @Pdr_InvMinimizeLits(ptr noundef nonnull %12, ptr noundef nonnull %.val, i32 noundef %.0) #17
  br label %33

31:                                               ; preds = %28
  %32 = tail call ptr @Pdr_InvMinimize(ptr noundef nonnull %12, ptr noundef nonnull %.val, i32 noundef %.0) #17
  br label %33

33:                                               ; preds = %31, %29
  %.024 = phi ptr [ %30, %29 ], [ %32, %31 ]
  %.not28 = icmp eq ptr %.024, null
  br i1 %.not28, label %38, label %34

34:                                               ; preds = %33
  tail call void @Abc_FrameSetInv(ptr noundef nonnull %.024) #17
  br label %38

35:                                               ; preds = %4
  tail call void (i32, ptr, ...) @Abc_Print(i32 noundef -2, ptr noundef nonnull @.str.216)
  tail call void (i32, ptr, ...) @Abc_Print(i32 noundef -2, ptr noundef nonnull @.str.217)
  tail call void (i32, ptr, ...) @Abc_Print(i32 noundef -2, ptr noundef nonnull @.str.200)
  %.not29 = icmp eq i32 %.021.ph, 0
  %36 = select i1 %.not29, ptr @.str.42, ptr @.str.41
  tail call void (i32, ptr, ...) @Abc_Print(i32 noundef -2, ptr noundef nonnull @.str.218, ptr noundef nonnull %36)
  %.not30 = icmp eq i32 %.0, 0
  %37 = select i1 %.not30, ptr @.str.42, ptr @.str.41
  tail call void (i32, ptr, ...) @Abc_Print(i32 noundef -2, ptr noundef nonnull @.str.45, ptr noundef nonnull %37)
  tail call void (i32, ptr, ...) @Abc_Print(i32 noundef -2, ptr noundef nonnull @.str.46)
  br label %38

38:                                               ; preds = %33, %34, %35, %27, %18, %14
  %.023 = phi i32 [ 1, %35 ], [ 0, %14 ], [ 0, %18 ], [ 0, %27 ], [ 0, %34 ], [ 0, %33 ]
  ret i32 %.023
}